target datalayout = "e-m:e-p270:32:32-p271:32:32-p272:64:64-i64:64-i128:128-f80:128-n8:16:32:64-S128"
target triple = "x86_64-pc-linux-gnu"

%struct.BlockRefTableBuffer = type { ptr, ptr, [65536 x i8], i32, i32, i32 }
%struct.BlockRefTableReader = type { %struct.BlockRefTableBuffer, ptr, ptr, ptr, i32, i32, ptr, [4096 x i16], i32 }

; Function Attrs: nounwind uwtable
define dso_local void @DestroyBlockRefTableReader(ptr noundef %0) #0 {
  %2 = alloca ptr, align 8
  store ptr %0, ptr %2, align 8
  %3 = load ptr, ptr %2, align 8
  %4 = getelementptr inbounds nuw %struct.BlockRefTableReader, ptr %3, i32 0, i32 6
  %5 = load ptr, ptr %4, align 8
  %6 = icmp ne ptr %5, null
  br i1 %6, label %7, label %13

7:                                                ; preds = %1
  %8 = load ptr, ptr %2, align 8
  %9 = getelementptr inbounds nuw %struct.BlockRefTableReader, ptr %8, i32 0, i32 6
  %10 = load ptr, ptr %9, align 8
  call void @pfree(ptr noundef %10)
  %11 = load ptr, ptr %2, align 8
  %12 = getelementptr inbounds nuw %struct.BlockRefTableReader, ptr %11, i32 0, i32 6
  store ptr null, ptr %12, align 8
  br label %13

13:                                               ; preds = %7, %1
  %14 = load ptr, ptr %2, align 8
  call void @pfree(ptr noundef %14)
  ret void
}